(iwrite_proof
Proof
p1
(dp2
S'passes'
p3
I55
sS'proof'
p4
S'wph wps wa vx wal wph vx wal wps vx wal wa wph wps wa vx wal wph vx wal wps vx wal wph wps wa wph vx wph wps simpl alimi wph wps wa wps vx wph wps simpr alimi jca wph wps wph wps wa vx wph wps wa id alanimi impbii'
p5
sS'label'
p6
S'19.26'
p7
sb.