(iwrite_proof
Proof
p1
(dp2
S'passes'
p3
I2437
sS'proof'
p4
S'wps wph wch w3a wph wps wch wth wps wph wch simp2 wps wph wch simp1 wps wph wch simp3 wph wps wch wth 3exp.1 3exp syl3c'
p5
sS'label'
p6
S'3com12'
p7
sb.