(iwrite_proof
Proof
p1
(dp2
S'passes'
p3
I34
sS'proof'
p4
S'wps wn wph wps wch w3o wn 3pm3.2ni.2 wph wps wch w3o wps wph wps wps wch wph wps 3pm3.2ni.1 pm2.21i wps id wch wps 3pm3.2ni.3 pm2.21i 3jaoi con3i re1axmp'
p5
sS'label'
p6
S'3pm3.2ni'
p7
sb.