(iwrite_proof
Proof
p1
(dp2
S'passes'
p3
I5155
sS'proof'
p4
S'wph wps wch w3a wps wch 3pm3.2i.2 3pm3.2i.3 wph wps wch w3a wph wps wch wa 3pm3.2i.1 wph wps wch 3anass mpbiran mpbir2an'
p5
sS'label'
p6
S'3pm3.2i'
p7
sb.