(iwrite_proof
Proof
p1
(dp2
S'passes'
p3
I263
sS'proof'
p4
S'vz cv vx cv wceq vx cv vy cv wceq wn wi vz wal vz cv vx cv wceq vx cv vy cv wceq wn wa vz wex vx cv vy cv wceq wn vz vx cv vx vex alexeq biimpri'
p5
sS'label'
p6
S'a12study10n'
p7
sb.