(iwrite_proof
Proof
p1
(dp2
S'passes'
p3
I389
sS'proof'
p4
S'wph wps wa wch wa wch wps wa wph wa wph wps wa wch wa wch wps wph wph wps wa wch simpr wph wps wch simplr wph wps wch simpll jca31 wch wps wa wph wa wph wps wch wch wps wa wph simpr wch wps wph simplr wch wps wph simpll jca31 impbii'
p5
sS'label'
p6
S'an31'
p7
sb.