(iwrite_proof
Proof
p1
(dp2
S'passes'
p3
I40
sS'proof'
p4
S'wph wps wph wps wi vx wal wph wn wph wps wi vx wph vx ax12o10lem11.1 ax12o10lem6 wph wps pm2.21 alrimi wps wph wps wi vx ax12o10lem11.2 wps wph re1tbw2 alrimi ja'
p5
sS'label'
p6
S'ax12o10lem11'
p7
sb.