(iwrite_proof
Proof
p1
(dp2
S'passes'
p3
I210
sS'proof'
p4
S'vz cv vx cv wcel vz cv vy cv wcel wb vx cv vy cv wceq vz vz cv vx cv wcel vz cv vy cv wcel wb vz wal vx cv vy cv wceq vz SetVar17 vz cv vx cv wcel vz cv vy cv wcel wb vz wal vz cv SetVar17 cv wceq vx cv vy cv wceq vz cv vx cv wcel vz cv vy cv wcel wb vz wal vx cv vy cv wceq vz cv SetVar17 cv wceq vx vy vz ax-ext adantr expcom vz cv vx cv wcel vz cv vy cv wcel wb vz ax12o10lem5 ax12o10lem8 19.35ri'
p5
sS'label'
p6
S'axext2'
p7
sb.