(iwrite_proof
Proof
p1
(dp2
S'passes'
p3
I12
sS'proof'
p4
S'wph wth wa wps wch wta wet wph wps wch wb wth bi2an9.1 adantr wth wta wet wb wph bi2an9.2 adantl bibi12d'
p5
sS'label'
p6
S'bi2bian9'
p7
sb.