(iwrite_proof
Proof
p1
(dp2
S'passes'
p3
I69
sS'proof'
p4
S'wps wps wps wa wph wps wch wa wps pm4.24 wph wps wps wch wph wps wps wch wb bianfd.1 pm2.21d pm5.32d syl5bb'
p5
sS'label'
p6
S'bianfd'
p7
sb.