(iwrite_proof
Proof
p1
(dp2
S'passes'
p3
I490
sS'proof'
p4
S'wph wps vx cA wrex wph wph wa wps wch wa wps vx cA wph wps wch wa vx cA wrex wph wph wps wch wa vx cA wrex bnj1238.1 biimpi adantr wps wch simpl bnj31 anidms'
p5
sS'label'
p6
S'bnj1238'
p7
sb.