(iwrite_proof
Proof
p1
(dp2
S'passes'
p3
I166
sS'proof'
p4
S'vi cv c0 wne wth wta wch w3a bnjwph0 wa wa vi cv c0 wne vi cv vn cv wcel vn cv cD wcel vi cv c0 wne wth wta wch w3a bnjwph0 wa simpl bnjwph0 vi cv vn cv wcel vi cv c0 wne wth wta wch w3a bnjwph0 vi cv vn cv wcel wsi vf cv cK wcel vi cv vf cv cdm wcel bnj1100.19 bnj1232 ad2antll vi cv c0 wne wth wta wch w3a bnjwph0 wa wa wch vn cv cD wcel wth wta wch bnjwph0 vi cv c0 wne simprl3 wch vn cv cD wcel vf cv vn cv wfn wph wps bnj1100.3 bnj1232 tbwsyl 3jca'
p5
sS'label'
p6
S'bnj1100'
p7
sb.