(iwrite_proof
Proof
p1
(dp2
S'passes'
p3
I1493
sS'proof'
p4
S'wph wps wa wch wi vx wex wch wps wa wch wa wps wi wch wps wch simplr wph wps wa wch wi vx wex wch wps wa wch wa wps wi wch wps wa wch wa wps wi wch wps wa wch wa wps wi wph wps wch vx wch wps wa wch wa wps wph wps wch wi wi vx wex wps wps wph wps wch wi wi vx wex wb wch wch wps wps wph wps wch wi wi vx wex wps id wph wps wch wi wi vx wex wps bnj1091.1 a1i 2thd ad2antlr wph wps wch wi wi vx wex wch wps wa wch wa wn bnj1091.1 a1i wl-pm5.74lem bnj1057 wch wps wa wch wa wps wi biid bitr3i mpbir'
p5
sS'label'
p6
S'bnj1091'
p7
sb.