(iwrite_proof
Proof
p1
(dp2
S'passes'
p3
I73
sS'proof'
p4
S'wph wps wch w3a wps wph wa wch wa wph wps wch w3a wps wph wch wph wps wch simp2 wph wps wch simp1 wph wps wch simp3 jca31 wps wph wa wch wa wph wps wch wps wph wch simplr wps wph wch simpll wps wph wa wch simpr 3jca impbii'
p5
sS'label'
p6
S'bnj171'
p7
sb.