(iwrite_proof
Proof
p1
(dp2
S'passes'
p3
I99
sS'proof'
p4
S'wph wps wch w3a wps wch wph wa wa wph wps wch w3a wps wch wph wph wps wch simp2 wph wps wch simp3 wph wps wch simp1 jca32 wps wch wph wa wa wph wps wch wps wch wph simprr wps wch wph wa simpl wps wch wph simprl 3jca impbii'
p5
sS'label'
p6
S'bnj177'
p7
sb.