(iwrite_proof
Proof
p1
(dp2
S'passes'
p3
I309
sS'proof'
p4
S'cA cR w-bnj15 wta wet wsi bnjwphn wet cA cR w-bnj15 wsi wta wet wsi cD vm vn vp bnj562.18 bnj562.19 bnj556 3ad2ant3 bnj562.38 syld3an3'
p5
sS'label'
p6
S'bnj562'
p7
sb.