(iwrite_proof
Proof
p1
(dp2
S'passes'
p3
I182
sS'proof'
p4
S'wph vx wal wps vy wal wph wps vx vy cbval.1 cbval.2 vx cv vy cv wceq wph wps cbval.3 biimpd cbv3ALT wps wph vy vx cbval.2 cbval.1 wps wph wi vx vy vx cv vy cv wceq wph wps cbval.3 biimprd equcoms cbv3 impbii'
p5
sS'label'
p6
S'cbval'
p7
sb.