(iwrite_proof
Proof
p1
(dp2
S'passes'
p3
I3707
sS'proof'
p4
S'vs cv cP cQ c.or co c.le wbr cR cP cQ c.or co c.le wbr cA cB cR cH c.or cK c.le c.an cW vs cdlemefs29.b cdlemefs29.l cdlemefs29.j cdlemefs29.m cdlemefs29.a cdlemefs29.h vs cv cR cP cQ c.or co c.le breq1 cdlemefrs29pre00'
p5
sS'label'
p6
S'cdlemefs29pre00N'
p7
sb.