(iwrite_proof
Proof
p1
(dp2
S'passes'
p3
I150
sS'proof'
p4
S'cK chlt wcel cW cH wcel wa cR cA wcel cS cA wcel cD cB wcel cA cB cR cS cD cH c.or cK c.le c.an cW cdlemeda.l cdlemeda.j cdlemeda.m cdlemeda.a cdlemeda.h cdlemeda.d cdlemedb.b cdleme0aa 3expb'
p5
sS'label'
p6
S'cdlemedb'
p7
sb.