(iwrite_proof
Proof
p1
(dp2
S'passes'
p3
I0
sS'proof'
p4
S'vv vu cA cB cP cQ cR cS cG cH c.or cK c.le c.an cN cO cV cW va vb vc cdlemef46g.b cdlemef46g.l cdlemef46g.j cdlemef46g.m cdlemef46g.a cdlemef46g.h cdlemef46.v cdlemef46.n cdlemefs46.o cdlemef46.g cdlemeg47rv2'
p5
sS'label'
p6
S'cdlemeg46rv2OLDN'
p7
sb.