(iwrite_proof
Proof
p1
(dp2
S'passes'
p3
I157
sS'proof'
p4
S'cA chil chj co chil cA chil chj co cA chil cA ch0le.1 chshii helsh shjshcli shssii chil cA helch ch0le.1 chub2i eqssi'
p5
sS'label'
p6
S'chj1i'
p7
sb.