(iwrite_proof
Proof
p1
(dp2
S'passes'
p3
I3017
sS'proof'
p4
S'wac wn cJ ctop wcel cS cX wss wa cS cJ ccl cfv cfv cX wss wi wac wac wn SetVar5 SetVar5 wac wn SetVar5 ax-17 SetVar5 cv SetVar5 cv wceq wac wac wn wac SetVar5 cv SetVar5 cv wceq axac a1i wac SetVar5 cv SetVar5 cv SetVar5 cv SetVar5 cv wne wac SetVar5 SetVar5 SetVar5 equidALT dtrucor a1i necon2bi 2thd axac chvar wac cJ ctop wcel cS cX wss wa cS cJ ccl cfv cfv cX wss wi axac pm2.24i re1axmp'
p5
sS'label'
p6
S'clsss3'
p7
sb.