(iwrite_proof
Proof
p1
(dp2
S'passes'
p3
I39
sS'proof'
p4
S'cA cV wcel cB cC wceq vx wal vx cA cB csb vx cA cC csb wceq cB cC wceq vx wal vx cA cB csb vx cA cC csb wceq cA cV wcel cB cC wceq vx wal vx cA cB cC cB cC wceq vx ax12o10lem5 cB cC wceq vx ax467to4 csbeq2d adantl ex'
p5
sS'label'
p6
S'csbeq2g'
p7
sb.