(iwrite_proof
Proof
p1
(dp2
S'passes'
p3
I32
sS'proof'
p4
S'cB cC wceq vx cA cB csb cC wceq vx cA cV vx SetVar15 SetVar16 vx cA cB csb cC vx SetVar15 cA cB hbcsb1 vx vy SetVar16 cC csbiebg.2 hblem hbeq vx cv cA wceq cB vx cA cB csb cC vx cA cB csbeq1a eqeq1d ceqsalg'
p5
sS'label'
p6
S'csbiebg'
p7
sb.