(iwrite_proof
Proof
p1
(dp2
S'passes'
p3
I1045
sS'proof'
p4
S'cB cB cB wf cB cB cB wf wa cB cB cB wf wi vx cA cB ciin vx cA cB cmpt crn cint wceq SetVar11 SetVar11 SetVar11 cv SetVar11 cv wceq cB cB cB wf cB cB cB wf wa cB cB cB wf wi vx cA cB ciin vx cA cB cmpt crn cint wceq SetVar11 cv SetVar11 cv wceq cB cB cB wf cB cB cB wf cB cB cB wf SetVar11 cv SetVar11 cv wceq cB cB cB wf idd adantld vx cA cB ciin vx cA cB cmpt crn cint SetVar11 cv SetVar11 cv SetVar11 cv SetVar11 cv wne vx cA cB ciin vx cA cB cmpt crn cint wne SetVar11 SetVar11 SetVar11 equidALT dtrucor a1i necon4i 2thd cB cB cB wf cB cB cB wf simpr chvarv'
p5
sS'label'
p6
S'dfiin3'
p7
sb.