(iwrite_proof
Proof
p1
(dp2
S'passes'
p3
I16
sS'proof'
p4
S'cK cV wcel cW cH wcel wa cX cB wcel cX cW c.le wbr wa cX cI cfv cT cF cB cT cH cI cK c.le cV cW cX diass.b diass.l diass.h diass.t diass.i diass bnj1140'
p5
sS'label'
p6
S'diael'
p7
sb.