(iwrite_proof
Proof
p1
(dp2
S'passes'
p3
I522
sS'proof'
p4
S'SetVar8 cA cB cA cdif cA SetVar8 cv cA wcel SetVar8 cv cB cA cdif wcel wn wa SetVar8 cv cA wcel SetVar8 cv cA wcel SetVar8 cv cB cA cdif wcel wn simpl SetVar8 cv cA wcel SetVar8 cv cA wcel SetVar8 cv cB cA cdif wcel wn SetVar8 cv cA wcel id SetVar8 cv cA cB elndif jca impbii difeqri'
p5
sS'label'
p6
S'difdif'
p7
sb.