(iwrite_proof
Proof
p1
(dp2
S'passes'
p3
I473
sS'proof'
p4
S'cC cA cdif cC cB cdif wceq cA cB cA cB cC difeq2 cC cA cdif cC cB cdif cA cB cA cB wceq cC cA cdif cC cB cdif wne difeq1i.1 a1i necon1i pm2.61ine'
p5
sS'label'
p6
S'difeq2i'
p7
sb.