(iwrite_proof
Proof
p1
(dp2
S'passes'
p3
I13
sS'proof'
p4
S'cK chlt wcel cW cH wcel wa cI crn cS cX cS cU cH cI cK cW dihsslss.h dihsslss.u dihsslss.i dihsslss.s dihsslss sselda'
p5
sS'label'
p6
S'dihrnlss'
p7
sb.