(iwrite_proof
Proof
p1
(dp2
S'passes'
p3
I7295
sS'proof'
p4
S'wch wph wph wch wch wn wph wn wps wph wn wch wch wn wph wps wph wps wo wch ecase3.3 con1i ord wps wch wi wph wn ecase3.2 a1i syl9 wch id ecase3.1 ecase3.1 pm2.61iii'
p5
sS'label'
p6
S'ecase3'
p7
sb.