(iwrite_proof
Proof
p1
(dp2
S'passes'
p3
I24
sS'proof'
p4
S'wps wch wth wet wps wch wth wta wet wps wch wth wta ee03an.2 dfvd3ir wph wta wet ee03an.1 ee03an.3 mpan e3 dfvd3i'
p5
sS'label'
p6
S'ee03an'
p7
sb.