(iwrite_proof
Proof
p1
(dp2
S'passes'
p3
I1024
sS'proof'
p4
S'wph wps wch wta wet wth wze wph wps wta wch ee323.2 a1dd ee323.3 ee323.1 wth wta wet wze ee323.4 com3l ee333'
p5
sS'label'
p6
S'ee323'
p7
sb.