(iwrite_proof
Proof
p1
(dp2
S'passes'
p3
I1494
sS'proof'
p4
S'wph wps wa wth wch wta wet wps wth wph eel2122.2 adantl eel2122.1 wps wta wph eel2122.3 adantl wch wth wta wet eel2122.4 3com12 syl3anc'
p5
sS'label'
p6
S'eel2122'
p7
sb.