(iwrite_proof
Proof
p1
(dp2
S'passes'
p3
I4722
sS'proof'
p4
S'wph wch wta wze wph wch wta w3a wps wch wth wet wps wps wth wze wph wch wps wta wph wps el123.1 in1 3ad2ant1 wph wch wta simp2 wch wph wth wta wch wth el123.2 in1 3ad2ant2 wta wph wet wch wta wet el123.3 in1 3ad2ant3 wph wch wps wta wph wps el123.1 in1 3ad2ant1 wph wch wps wta wph wps el123.1 in1 3ad2ant1 wch wph wth wta wch wth el123.2 in1 3ad2ant2 wth wet wps w3a wps wch wa wze wps wth wa wps wth wet wze el123.4 3coml 3ad2ant2 syl232anc dfvd3anir'
p5
sS'label'
p6
S'el123'
p7
sb.