(iwrite_proof
Proof
p1
(dp2
S'passes'
p3
I350
sS'proof'
p4
S'cA wph vx cab wcel cA cvv wcel wph vx cA wsbc cA wph vx cab elex cA cvv wcel wph vx cA wsbc cA wph vx cab wcel wph vx cA cvv sbc8g bicomd biadan2'
p5
sS'label'
p6
S'elabs2'
p7
sb.