(iwrite_proof
Proof
p1
(dp2
S'passes'
p3
I238
sS'proof'
p4
S'vx cv vy cv wceq vz cv vx cv wcel vz cv vy cv wcel vx vy vz ax-14 vz cv vy cv wcel vz cv vx cv wcel wi vy vx vy vx vz ax-14 equcoms impbid'
p5
sS'label'
p6
S'elequ2'
p7
sb.