(iwrite_proof
Proof
p1
(dp2
S'passes'
p3
I12
sS'proof'
p4
S'wph wth vx vy vz cA cB cC cV cW cX vx cv cA wceq wph wps vy cv cB wceq wch vz cv cC wceq wth eloprabg.1 eloprabg.2 eloprabg.3 syl3an9b eloprabga'
p5
sS'label'
p6
S'eloprabg'
p7
sb.