(iwrite_proof
Proof
p1
(dp2
S'passes'
p3
I30
sS'proof'
p4
S'wph wps cA cB cpw wcel wph wps cA cB wph cA cvv wcel elpwgdedVD.1 in1 wps cA cB wss elpwgdedVD.2 in1 elpwgded dfvd2anir'
p5
sS'label'
p6
S'elpwgdedVD'
p7
sb.