(iwrite_proof
Proof
p1
(dp2
S'passes'
p3
I23
sS'proof'
p4
S'SetVar17 SetVar1 SetVar2 SetVar16 SetVar15 SetVar0 cA cB cC cD cpp cer cnp SetVar17 SetVar1 SetVar2 SetVar16 SetVar15 SetVar0 df-enr ecopoveq'
p5
sS'label'
p6
S'enrbreq'
p7
sb.