(iwrite_proof
Proof
p1
(dp2
S'passes'
p3
I1671
sS'proof'
p4
S'cA wrel cB wrel wa wph cA cB wceq cA wrel cB wrel wa wph wa vx vy cA cB eqrelrdv2OLD.1 eqrelrdv2 anabss5'
p5
sS'label'
p6
S'eqrelrdv2OLD'
p7
sb.