(iwrite_proof
Proof
p1
(dp2
S'passes'
p3
I780
sS'proof'
p4
S'SetVar3 cA cB SetVar3 cv cA wcel SetVar3 cv cB wcel cA cB SetVar3 cv eqssi.1 sseli cB cA SetVar3 cv eqssi.2 sseli impbii eqriv'
p5
sS'label'
p6
S'eqssi'
p7
sb.