(iwrite_proof
Proof
p1
(dp2
S'passes'
p3
I3079
sS'proof'
p4
S'vx cv vy cv wceq wph vy wal wa vx wex vx cv vy cv wceq wph wi vx wal SetVar15 SetVar8 vx cv vy cv wceq wph vy wal wa vx wex vx cv vy cv wceq wph wi vx wal SetVar8 wal SetVar15 wal vx cv vy cv wceq wph vy wal wa vx wex vx cv vy cv wceq wph vy wal wa vx cv vy cv wceq wph wi vx wal SetVar8 wal SetVar15 wal vx vx cv vy cv wceq wph vy wal wa vx hbe1 vx cv vy cv wceq wph wi vx wal SetVar8 wal vx SetVar15 vx cv vy cv wceq wph wi vx SetVar8 hba2 hbal vx cv vy cv wceq wph vy wal wa vx wex vx cv vy cv wceq wph vy wal wa vx cv vy cv wceq wph wi vx wal SetVar8 wal SetVar15 vx cv vy cv wceq wph vy wal wa vx wex SetVar15 ax-17 vx cv vy cv wceq wph vy wal wa SetVar15 ax-17 vx cv vy cv wceq wph vy wal wa vx wex vx cv vy cv wceq wph vy wal wa vx cv vy cv wceq wph wi vx wal SetVar8 vx cv vy cv wceq wph vy wal wa vx wex SetVar8 ax-17 vx cv vy cv wceq wph vy wal wa SetVar8 ax-17 vx cv vy cv wceq wph vy wal wa vx wex vx cv vy cv wceq wph vy wal vx cv vy cv wceq wph wi vx wal vx cv vy cv wceq wph vy wal vx cv vy cv wceq wph wi vx wal wi vx cv vy cv wceq wph vy wal wa vx wex wph vx vy ax-11 adantl expimpd alrimd alrimd exlimd pm2.43i 19.21bbi'
p5
sS'label'
p6
S'equs5a'
p7
sb.