(iwrite_proof
Proof
p1
(dp2
S'passes'
p3
I67
sS'proof'
p4
S'vy cv vz cv wceq vx cv vz cv wceq vx cv vy cv wceq vx cv vz cv wceq vx cv vy cv wceq wb vz vy vz vy vx ax10lem16 equcoms biimpac'
p5
sS'label'
p6
S'equtr2'
p7
sb.