(iwrite_proof
Proof
p1
(dp2
S'passes'
p3
I444
sS'proof'
p4
S'cF cF cF wfo cF cF cF wfo wn wa cA cB cF wf cA cB cG wf wb cF cF cF wfo cF cF cF wfo wn wa cA cB cF cG cF cG wceq cF cF cF wfo cF cF cF wfo wn wa feq1i.1 a1i feq1d cF cF cF wfo cF cF cF wfo wn wa wn cA cB cF cG cF cG wceq cF cF cF wfo cF cF cF wfo wn wa wn feq1i.1 a1i feq1d pm2.61i'
p5
sS'label'
p6
S'feq1i'
p7
sb.