(iwrite_proof
Proof
p1
(dp2
S'passes'
p3
I1677
sS'proof'
p4
S'cA cV wcel c0 c0 wor wn c0 c0 wor cA c0 wceq cA cfi cfv c0 wceq wb c0 c0 wor c0 c0 wor wn SetVar2 SetVar2 c0 c0 wor wn SetVar2 ax-17 SetVar2 cv SetVar2 cv wceq c0 c0 wor c0 c0 wor wn c0 c0 wor SetVar2 cv SetVar2 cv wceq c0 so0 a1i c0 c0 wor SetVar2 cv SetVar2 cv SetVar2 cv SetVar2 cv wne c0 c0 wor SetVar2 SetVar2 SetVar2 equidALT dtrucor a1i necon2bi 2thd c0 so0 chvar c0 c0 wor cA cV wcel c0 so0 a1i c0 c0 wor wn c0 c0 wor cA cA cfi cfv c0 c0 c0 c0 wor cA cA cfi cfv wceq c0 so0 pm2.24i c0 c0 wor c0 eqidd eqeqan12d sylancr'
p5
sS'label'
p6
S'fieq0'
p7
sb.