(iwrite_proof
Proof
p1
(dp2
S'passes'
p3
I6247
sS'proof'
p4
S'cA cR wor cA cfn wcel cA c0 wne wa vx cv vy cv wne vy cv vx cv cR wbr wi vy cA wral vx cA wrex cA cR wor cA cfn wcel cA c0 wne wa fimax.1OLD a1i cA cR wor cA cfn wcel cA c0 wne vx cv vy cv wne vy cv vx cv cR wbr wi vy cA wral vx cA wrex vx vy cA cR fimaxg 3expib mpcom'
p5
sS'label'
p6
S'fimaxOLD'
p7
sb.