(iwrite_proof
Proof
p1
(dp2
S'passes'
p3
I14
sS'proof'
p4
S'SetVar0 cC cB cB cA cA cB csn cxp SetVar0 cv cC wceq cB eqidd SetVar0 cA cB fconstmpt fvconst2.1 fvmpt3i'
p5
sS'label'
p6
S'fvconst2'
p7
sb.