(iwrite_proof
Proof
p1
(dp2
S'passes'
p3
I9
sS'proof'
p4
S'cK cM cN cfz co wcel cM cN cfz co cM cK cfz co cK c1 caddc co cN cfz co cun wceq cN cA wcel cK cM cN fzsplit adantl'
p5
sS'label'
p6
S'fzsplitOLD'
p7
sb.