(iwrite_proof
Proof
p1
(dp2
S'passes'
p3
I1352
sS'proof'
p4
S'wac wn cA cfn wcel cA chash cfv cn0 wcel wac wac wn SetVar15 SetVar15 wac wn SetVar15 ax-17 SetVar15 cv SetVar15 cv wceq wac wac wn wac SetVar15 cv SetVar15 cv wceq axac a1i wac SetVar15 cv SetVar15 cv SetVar15 cv SetVar15 cv wne wac SetVar15 SetVar15 SetVar15 equidALT dtrucor a1i necon2bi 2thd axac chvar wac wn cA chash cfv cn0 wcel cA cfn wcel wac cA chash cfv cn0 wcel axac pm2.24i adantr mpan'
p5
sS'label'
p6
S'hashcl'
p7
sb.