(iwrite_proof
Proof
p1
(dp2
S'passes'
p3
I831
sS'proof'
p4
S'wph wps wph wps wb vx wal wph wps wph wps wb vx hb.1 hb.2 wph wps pm5.1im alrimd wph wn wps wn wph wps wb vx wph vx hb.1 ax12o10lem6 wps vx hb.2 ax12o10lem6 wph wps pm5.21im alrimd bija'
p5
sS'label'
p6
S'hbbi'
p7
sb.