(iwrite_proof
Proof
p1
(dp2
S'passes'
p3
I2002
sS'proof'
p4
S'wac wn wac wn wac wi wac wn wac wi wi wa wac wn cF cJ cK chmeo co wcel cF ccnv cK cJ ccn co wcel wi wac wac wn wac wn wac wi wac wn wac wi wi wa SetVar6 SetVar6 wac wn wac wn wac wi wac wn wac wi wi wa SetVar6 ax-17 SetVar6 cv SetVar6 cv wceq wac wac wn wac wn wac wi wac wn wac wi wi wa wac SetVar6 cv SetVar6 cv wceq axac a1i SetVar6 cv SetVar6 cv wceq wac wn wac wn wac wi wac wn wac wi wi wac SetVar6 cv SetVar6 cv SetVar6 cv SetVar6 cv wne wac SetVar6 SetVar6 SetVar6 equidALT dtrucor a1i necon2bi SetVar6 cv SetVar6 cv wceq wac wn wac wi idd jca 2thd axac chvar wac wn wac wn wac wi wac wn wac wi wi simpl wac cF cJ cK chmeo co wcel cF ccnv cK cJ ccn co wcel wi axac pm2.24i mp2b'
p5
sS'label'
p6
S'hmeocnvcn'
p7
sb.