(iwrite_proof
Proof
p1
(dp2
S'passes'
p3
I294
sS'proof'
p4
S'wph wps wth wi wch wta wi wph wch wps wth wta wph wps wch imbi12d.1 biimprd wph wth wta imbi12d.2 biimpd imim12d wph wps wch wta wth wph wps wch imbi12d.1 biimpd wph wth wta imbi12d.2 biimprd imim12d impbid'
p5
sS'label'
p6
S'imbi12d'
p7
sb.