(iwrite_proof
Proof
p1
(dp2
S'passes'
p3
I30
sS'proof'
p4
S'wph wps wb wch wth wb wph wch wi wps wth wi wb wph wps wb wch wth wb wa wph wps wch wth wph wps wb wch wth wb simpl wph wps wb wch wth wb simpr imbi12d ex'
p5
sS'label'
p6
S'imbi12'
p7
sb.