(iwrite_proof
Proof
p1
(dp2
S'passes'
p3
I583
sS'proof'
p4
S'wph wps wch wi wi wph wps wa wph wch wa wi wph wps wch wi wi wph wps wph wch wa wph wps wch anc2l imp3a wph wps wa wph wch wa wi wph wps wch wph wps wa wph wps wa wph wch wa wch wph wps wa id wph wch simpr imim12i exp3a impbii'
p5
sS'label'
p6
S'imdistan'
p7
sb.