(iwrite_proof
Proof
p1
(dp2
S'passes'
p3
I717
sS'proof'
p4
S'wps wch wi wph wch wi wi wph wps wch wo wi wps wch wi wph wch wi wph wps wch wo wi wps wch wi wn wph wps wch wo wps wch wi wn wps wch wo wph wps wch wi wn wps wch wps wch simplim orcd adantr ex wph wph wch wps wch wo wph id wch wps olc imim12i ja wph wps wch wo wi wph wps wch wi wch wph wph wps wch wo wps wch wi wch wi wph id wps wch pm2.62 imim12i com23 impbii'
p5
sS'label'
p6
S'imimorb'
p7
sb.