(iwrite_proof
Proof
p1
(dp2
S'passes'
p3
I195
sS'proof'
p4
S'wph cA cB cif cC wcel wtru wph cA cB cC cA cC wcel wtru wph wa keepel.1 a1i cB cC wcel wtru wph wn wa keepel.2 a1i ifclda trud'
p5
sS'label'
p6
S'keepel'
p7
sb.