(iwrite_proof
Proof
p1
(dp2
S'passes'
p3
I1679
sS'proof'
p4
S'wph wps wi wch wph wta wi wi wfal wi wps wph wps wch wph wta wi wi wfal wi wch wph wta wi wi wfal wi wps wi wi wph wn wch wph wta wi wi wfal wi wch wph wta wi wi wfal wps wph wn wch wch wph wta wi wi wfal wph wta wi wph wn wch wch wph wta wph wn wch wph wa wta wi wch wph wn wph wta wch wph wta pm2.21 adantld adantr exp4b wph wn wph wta wi merco1lem1 imim12d wph wn wps merco1lem1 imim12d wps wch wph wta wi wi wfal wi wps wch wph wta wi wi wfal wi wps wch wph wta wi wi wfal wi pm5.1 exbiri ja pm2.43d'
p5
sS'label'
p6
S'merco1lem11'
p7
sb.