(iwrite_proof
Proof
p1
(dp2
S'passes'
p3
I299
sS'proof'
p4
S'cA cB wne cC cD wne cC cD wne cA cB wne wn cA cB wne wn cC cD cA cB wne cC cD wceq cC cD wceq cA cB necon3bii.1 necon3abii con2bii necon3abii con2bii con4bii'
p5
sS'label'
p6
S'necon3bii'
p7
sb.