(iwrite_proof
Proof
p1
(dp2
S'passes'
p3
I0
sS'proof'
p4
S'wph wps wch wth wta vx vy cA nn0ind-raph.1 nn0ind-raph.2 nn0ind-raph.3 nn0ind-raph.4 nn0ind-raph.5 nn0ind-raph.6 nn0ind'
p5
sS'label'
p6
S'nn0ind-raph'
p7
sb.