(iwrite_proof
Proof
p1
(dp2
S'passes'
p3
I1543
sS'proof'
p4
S'wac cn cr wss axac wac wac wn SetVar6 SetVar6 wac wn SetVar6 ax-17 SetVar6 cv SetVar6 cv wceq wac wac wn wac SetVar6 cv SetVar6 cv wceq axac a1i wac SetVar6 cv SetVar6 cv SetVar6 cv SetVar6 cv wne wac SetVar6 SetVar6 SetVar6 equidALT dtrucor a1i necon2bi 2thd axac chvar pm2.24ii'
p5
sS'label'
p6
S'nnssre'
p7
sb.