(iwrite_proof
Proof
p1
(dp2
S'passes'
p3
I1361
sS'proof'
p4
S'cC cA cop cC cB cop wceq cA cB cA cB cC opeq2 cC cA cop cC cB cop cA cB cA cB wceq cC cA cop cC cB cop wne opeq1i.1 a1i necon1i pm2.61ine'
p5
sS'label'
p6
S'opeq2i'
p7
sb.