(iwrite_proof
Proof
p1
(dp2
S'passes'
p3
I88
sS'proof'
p4
S'cK cz wcel cM cz wcel cN cz wcel w3a cK cM cdivides wbr cK cM cN cmul co cdivides wbr cK cN cdivides wbr cK cM cN dvdsmultr1 cK cM cN dvdsmultr2 jaod'
p5
sS'label'
p6
S'ordvdsmul'
p7
sb.