(iwrite_proof
Proof
p1
(dp2
S'passes'
p3
I97
sS'proof'
p4
S'cF cS cply cfv wcel cG cS cply cfv wcel wa SetVar17 SetVar7 cc cF cG cF cS cply cfv wcel cF cc cply cfv wcel cG cS cply cfv wcel cS cply cfv cc cply cfv cF cS plyssc sseli adantr cF cS cply cfv wcel cS cply cfv cc cply cfv cG cS cply cfv cc cply cfv wss cF cS cply cfv wcel cS plyssc a1i sselda SetVar17 cv cc wcel SetVar7 cv cc wcel wa SetVar17 cv SetVar7 cv caddc co cc wcel cF cS cply cfv wcel cG cS cply cfv wcel wa SetVar17 cv SetVar7 cv addcl adantl SetVar17 cv cc wcel SetVar7 cv cc wcel wa SetVar17 cv SetVar7 cv cmul co cc wcel cF cS cply cfv wcel cG cS cply cfv wcel wa SetVar17 cv SetVar7 cv ax-mulcl adantl plymul'
p5
sS'label'
p6
S'plymulcl'
p7
sb.