(iwrite_proof
Proof
p1
(dp2
S'passes'
p3
I218
sS'proof'
p4
S'wph vx wex wph wps wi vx wal wa wph wps wa vx wex wph wps wi vx wal wa wph wps wi vx wal wph vx wex wph wps wa vx wex wph wps vx exintrbi pm5.32ri bicomi'
p5
sS'label'
p6
S'pm10.55'
p7
sb.