(iwrite_proof
Proof
p1
(dp2
S'passes'
p3
I106
sS'proof'
p4
S'wph vx cA wsbc wph wn vx cv cA wne wph vx cA wsbc wph vx cv cA wph vx cA wsbc vx cv cA wceq wph wph vx cA pm13.13b ex necon3bd imp'
p5
sS'label'
p6
S'pm13.14'
p7
sb.