(iwrite_proof
Proof
p1
(dp2
S'passes'
p3
I37
sS'proof'
p4
S'wph wph wps wo wch wo wps wch wo wph wph wps wo wch wph wps orc orcd wps wph wps wo wch wps wph olc orim1i jaoi'
p5
sS'label'
p6
S'pm2.31'
p7
sb.