(iwrite_proof
Proof
p1
(dp2
S'passes'
p3
I234
sS'proof'
p4
S'wph wps wa wch wph wch wn wa wps wn wi wph wps wa wn wph wps wn wch wn wph wps wph wps wa wph wps pm3.2 con3rr3 adantrd wch wch wn wps wn wph wch wps wn pm2.24 adantld ja'
p5
sS'label'
p6
S'pm3.37'
p7
sb.