(iwrite_proof
Proof
p1
(dp2
S'passes'
p3
I2494
sS'proof'
p4
S'wph wps wn wa wch wi wph wps wch wo wi wph wps wn wa wch wi wph wps wch wo wi wph wps wch wo wi wn wph wps wn wa wch wph wps wch wo wi wph wps wch wo wi wn wph wps wn wph wps wch wo simplim wps wph wps wch wo wi wps wph wps wch wo wps wps wch wo wph wps wch orc adantr ex con3i jca wch wph wps wch wo wch wps wch wo wph wch wps olc adantr ex imim12i pm2.18d wph wps wch wo wi wph wps wn wch wph wph wps wch wo wps wn wch wi wph id wps wch pm2.53 imim12i imp3a impbii'
p5
sS'label'
p6
S'pm5.6'
p7
sb.