(iwrite_proof
Proof
p1
(dp2
S'passes'
p3
I50
sS'proof'
p4
S'wph wps wi wph wch wi wph wps wch wph wps wch pm5.74i.1 biimpd a2i wph wch wps wph wps wch pm5.74i.1 biimprd a2i impbii'
p5
sS'label'
p6
S'pm5.74i'
p7
sb.