(iwrite_proof
Proof
p1
(dp2
S'passes'
p3
I760
sS'proof'
p4
S'wph wps wa wph wb wph wps wa wps wb wph wps wa wph wps wa wph wb wps wps wph wps wa wph wb wph wps wph wps wa wph wps wph wps simprl wps wph pm3.22 impbida adantl wps wph wps wa wph wps wph wps simprl wps wph pm3.22 impbida pm5.21ni orri'
p5
sS'label'
p6
S'pm5.54'
p7
sb.