(iwrite_proof
Proof
p1
(dp2
S'passes'
p3
I552
sS'proof'
p4
S'wph wps wo wps wn wa wph wps wn wa wps wn wph wps wo wph wps wph orel2 imdistanri wph wph wps wo wps wn wph wps orc anim1i impbii'
p5
sS'label'
p6
S'pm5.61'
p7
sb.