(iwrite_proof
Proof
p1
(dp2
S'passes'
p3
I693
sS'proof'
p4
S'cC cA cpr cC cB cpr wceq cA cB cA cB cC preq2 cC cA cpr cC cB cpr cA cB cA cB wceq cC cA cpr cC cB cpr wne preq1i.1 a1i necon1i pm2.61ine'
p5
sS'label'
p6
S'preq2i'
p7
sb.