(iwrite_proof
Proof
p1
(dp2
S'passes'
p3
I197
sS'proof'
p4
S'cA cB wcel wac vx cv c.sm cec cA c.sm cec wceq vx cB wrex axac vx cv c.sm cec cA c.sm cec wceq wac vx cA cB vx cv cA wceq vx cv c.sm cec cA c.sm cec wceq wac vx cv cA c.sm eceq1 wac vx cv cA wceq axac a1i 2thd rcla4ev mpan2'
p5
sS'label'
p6
S'prtlem9'
p7
sb.