(iwrite_proof
Proof
p1
(dp2
S'passes'
p3
I51
sS'proof'
p4
S'vu cv vx cv wcel vv cv vx cv wcel wa vx cA wrex vr cv vx cv wcel vs cv vx cv wcel wa vx cA wrex vv vu vs cv vr cv vs vex vr vex vv cv vs cv wceq vu cv vr cv wceq wa vu cv vx cv wcel vv cv vx cv wcel wa vr cv vx cv wcel vs cv vx cv wcel wa vx cA vv cv vs cv wceq vu cv vr cv wceq wa vx ax-17 vu cv vr cv wceq vu cv vx cv wcel vr cv vx cv wcel vv cv vs cv wceq vv cv vx cv wcel vs cv vx cv wcel vu vr vx elequ1 vv vs vx elequ1 bi2anan9r rexbid sbc2ie'
p5
sS'label'
p6
S'prtlem5'
p7
sb.