(iwrite_proof
Proof
p1
(dp2
S'passes'
p3
I287
sS'proof'
p4
S'wps vx cA wral wph vx cA wrex wph wps wa vx cA wrex wps vx cA wral wph wph wps wa vx cA wps vx cA hbra1 wps vx cA wral wph wph wps wa wb vx cA wps wph wph wps wa wb vx cA wps wph iba ralimi r19.21bi rexbida biimpac'
p5
sS'label'
p6
S'r19.29r'
p7
sb.