(iwrite_proof
Proof
p1
(dp2
S'passes'
p3
I434
sS'proof'
p4
S'wph wps wo vx cA wrex wph vx cA wrex wps vx cA wrex wo wph wps wo wph vx cA wrex wps vx cA wrex wo vx cA wph vx cA wrex wps vx cA wrex vx wph vx cA hbre1 wps vx cA hbre1 hbor vx cv cA wcel wph wph vx cA wrex wps wps vx cA wrex vx cv cA wcel wph wph vx cA wrex wph vx cA ra4e ex vx cv cA wcel wps wps vx cA wrex wps vx cA ra4e ex orim12d rexlimi wph vx cA wrex wph wps wo vx cA wrex wps vx cA wrex wph wph wps wo vx cA wph wps orc reximi wps wph wps wo vx cA wps wph olc reximi jaoi impbii'
p5
sS'label'
p6
S'r19.43'
p7
sb.