(iwrite_proof
Proof
p1
(dp2
S'passes'
p3
I3738
sS'proof'
p4
S'wph wps wi wn wph wn wps wo wo wn wph wn wps wo wn wph wps wi wo wn wph wps wi wn wph wn wps wo wo wph wps wi wph wn wps wo wph wps wph wn wps wo wph wn wps orc wps wph wn olc ja imori notnoti wph wn wps wo wn wph wps wi wo wph wn wps wo wph wps wi wph wn wph wps wi wps wph wps pm2.21 wps wph re1tbw2 jaoi imori notnoti pm3.2ni'
p5
sS'label'
p6
S'rb-imdf'
p7
sb.