(iwrite_proof
Proof
p1
(dp2
S'passes'
p3
I72
sS'proof'
p4
S'ct1 cA cJ cV cJ t1top cid cA cJ cuni cin cres cJ cA crest co cJ cA cJ cuni cin cA cJ cuni cin cnt1 resthauslem'
p5
sS'label'
p6
S'restt1'
p7
sb.