(iwrite_proof
Proof
p1
(dp2
S'passes'
p3
I39
sS'proof'
p4
S'SetVar3 SetVar19 cr SetVar3 cv recn SetVar3 cv SetVar19 cv ax-addrcl SetVar3 cv renegcl 1re SetVar3 cv SetVar19 cv remulcl SetVar3 cv rereccl cnsubdrglem'
p5
sS'label'
p6
S'resubdrg'
p7
sb.