(iwrite_proof
Proof
p1
(dp2
S'passes'
p3
I45
sS'proof'
p4
S'wph vx vy cv wsbc wps vx vy cv wsbc wph wps vx vy wph wps sbbii.1 biimpi sbimi wps wph vx vy wph wps sbbii.1 biimpri sbimi impbii'
p5
sS'label'
p6
S'sbbii'
p7
sb.