(iwrite_proof
Proof
p1
(dp2
S'passes'
p3
I162
sS'proof'
p4
S'cA cV wcel vx cv cA wceq wph wa vx wex wph vx cA wsbc wph wph vx cA wsbc vx cA cV wph vx cA hbsbc1 wph vx cA sbceq1a ceqsexg bicomd'
p5
sS'label'
p6
S'sbc5g'
p7
sb.