(iwrite_proof
Proof
p1
(dp2
S'passes'
p3
I168
sS'proof'
p4
S'cA cV wcel vy cv cA wceq wph vx vy cv wsbc wa vy wex wph vx cA wsbc wph vx vy cv wsbc wph vx cA wsbc vy cA cV wph vx vy cv cA dfsbcq ceqsexgv bicomd'
p5
sS'label'
p6
S'sbc7g'
p7
sb.