(iwrite_proof
Proof
p1
(dp2
S'passes'
p3
I39
sS'proof'
p4
S'cA cV wcel wph wph wb wph vx cA wsbc wps vx cA wsbc wb cA cV wcel wph biidd wph wph wb wph wps vx cA wph wph wb vx wph biid hbth wph wps wb wph wph wb sbcbii.1 a1i sbcbid tbwsyl'
p5
sS'label'
p6
S'sbcbii'
p7
sb.