(iwrite_proof
Proof
p1
(dp2
S'passes'
p3
I917
sS'proof'
p4
S'wph vx vy cv wsbc wps wps wb wps wph vx vy cv wsbc wps biidd wps wps biidd wps wps wb wph wps vx vy wps wps vx sbie.1 sbie.1 hbbi wps wps wb wps wps vx wps wps vx sbie.1 sbie.1 hbbi sbie.1 wps wps wb wps idd alrimd vx cv vy cv wceq wps wps wb wph wps wb vx cv vy cv wceq wph wps wb wps wps wb sbie.2 adantr expcom sbied pm5.21nii'
p5
sS'label'
p6
S'sbie'
p7
sb.