(iwrite_proof
Proof
p1
(dp2
S'passes'
p3
I172
sS'proof'
p4
S'SetVar7 SetVar17 SetVar4 c0 cR SetVar7 cv SetVar7 cv cR wbr wn SetVar7 c0 SetVar7 cv SetVar7 cv cR wbr wn SetVar7 ral0 rspec SetVar7 cv SetVar17 cv cR wbr SetVar17 cv SetVar4 cv cR wbr wa SetVar7 cv SetVar4 cv cR wbr wi SetVar7 SetVar17 SetVar4 c0 c0 c0 SetVar7 cv SetVar17 cv cR wbr SetVar17 cv SetVar4 cv cR wbr wa SetVar7 cv SetVar4 cv cR wbr wi SetVar4 c0 wral SetVar17 c0 wral SetVar7 ral0 rspec3 SetVar7 cv SetVar17 cv cR wbr SetVar7 cv SetVar17 cv wceq SetVar17 cv SetVar7 cv cR wbr w3o SetVar7 SetVar17 c0 c0 SetVar7 cv SetVar17 cv cR wbr SetVar7 cv SetVar17 cv wceq SetVar17 cv SetVar7 cv cR wbr w3o SetVar17 c0 wral SetVar7 ral0 rspec2 issoi'
p5
sS'label'
p6
S'so0'
p7
sb.