(iwrite_proof
Proof
p1
(dp2
S'passes'
p3
I16
sS'proof'
p4
S'cR cps wcel cA cV wcel wph vx cX wrex cR cA cspw co cX wcel wph vx vy vz cA cR cV cX spwex.1 spwex.2 spwex biimp3a'
p5
sS'label'
p6
S'spwcl'
p7
sb.