(iwrite_proof
Proof
p1
(dp2
S'passes'
p3
I4198
sS'proof'
p4
S'cC cA wss cC cB wss wb cB cA cC cB wss cB cA wceq cC cA wss cC cB wss cB cA wceq cC cA wss cB cA wceq cC cB wss cA cB cA cB sseq1i.1 sseq1i.1 sseq1i.1 3eqtr2ri a1i cB cA cC sseq2 biadan2 baibr cB cA wne cC cA wss cC cB wss cC cA wss cB cA cB cA wceq cC cA wss cA cB cA cB sseq1i.1 sseq1i.1 sseq1i.1 3eqtr2ri a1i necon3ai cC cB wss cB cA cB cA wceq cC cB wss cA cB cA cB sseq1i.1 sseq1i.1 sseq1i.1 3eqtr2ri a1i necon3ai 2falsed pm2.61ine'
p5
sS'label'
p6
S'sseq2i'
p7
sb.