(iwrite_proof
Proof
p1
(dp2
S'passes'
p3
I21
sS'proof'
p4
S'cA cC wss cA cB wss cA cB cC cun wss cA cC wss cA cB cC cun wss cA cB wss cA cC cB ssun4 cA cB cC ssun3 jaoi orcoms'
p5
sS'label'
p6
S'ssun'
p7
sb.