(iwrite_proof
Proof
p1
(dp2
S'passes'
p3
I2482
sS'proof'
p4
S'wph wth wta wps wch wet sylXanc.3 sylXanc.4 sylXanc.1 sylXanc.2 wps wch wa wth wta wet syl211anc.5 3coml syl112anc'
p5
sS'label'
p6
S'syl211anc'
p7
sb.