(iwrite_proof
Proof
p1
(dp2
S'passes'
p3
I128
sS'proof'
p4
S'wph wth wet w3a wps wch wze wph wth wps wch wb wet syl3an9b.1 3ad2ant1 wth wet wch wze wb wph wth wch wta wet wze syl3an9b.2 syl3an9b.3 sylan9bb 3adant1 bitrd'
p5
sS'label'
p6
S'syl3an9b'
p7
sb.