(iwrite_proof
Proof
p1
(dp2
S'passes'
p3
I332
sS'proof'
p4
S'wph wps wa wph wch wa wth wta wth wph wps wa wph wch wph wps simpl syldanl.1 jca wth id syldanl.2 syl2an'
p5
sS'label'
p6
S'syldanl'
p7
sb.