(iwrite_proof
Proof
p1
(dp2
S'passes'
p3
I732
sS'proof'
p4
S'wch wps wth w3a wth wps wph wta wch wps wth simp3 wch wps wth simp2 syld3an1.1 wph wps wth wta syld3an1.2 3com13 syl3anc'
p5
sS'label'
p6
S'syld3an1'
p7
sb.