(iwrite_proof
Proof
p1
(dp2
S'passes'
p3
I235
sS'proof'
p4
S'wph wps wfal wi wi wph wch wi wth wps wth wi wph wch wi wn wph wps wfal wi wps wth wi wph wch simplim wps wps wfal wth wps id wth falim imim12i imim12i wph wps wfal wi wi wth wps wth wph wps wfal wi wi wth wps simp2 3exp jad'
p5
sS'label'
p6
S'tbwlem2'
p7
sb.