(iwrite_proof
Proof
p1
(dp2
S'passes'
p3
I178
sS'proof'
p4
S'cB cF crecs cdm wcel cF crecs cB cres cvv wcel cB con0 wcel cB cF crecs cdm wcel cF crecs cB cres cvv wcel cB con0 wcel vx vy cA cB vf cF tfrlem.1 tfrlem9a cF crecs cB cres cvv wcel cF crecs cdm con0 cB cF crecs cdm con0 wceq cF crecs cB cres cvv wcel vx vy cA vf cF tfrlem.1 tfrlem14 a1i eleq2d biadan2 rbaib'
p5
sS'label'
p6
S'tfrlem15'
p7
sb.