(iwrite_proof
Proof
p1
(dp2
S'passes'
p3
I68
sS'proof'
p4
S'cJ ctop wcel cK ctop wcel cJ ctg cfv cK ctg cfv wceq cJ cK wceq cJ ctop wcel cK ctop wcel cJ ctg cfv cJ cK ctg cfv cK cJ tgtop cK tgtop eqeqan12d biimp3a'
p5
sS'label'
p6
S'tgtop11'
p7
sb.