(iwrite_proof
Proof
p1
(dp2
S'passes'
p3
I3961
sS'proof'
p4
S'cT ctsk wcel cA cT wcel wa wac wac wn cA cpw cT wss axac wac wac wn SetVar6 SetVar6 wac wn SetVar6 ax-17 SetVar6 cv SetVar6 cv wceq wac wac wn wac SetVar6 cv SetVar6 cv wceq axac a1i wac SetVar6 cv SetVar6 cv wac wac wac wa wac wi SetVar6 cv SetVar6 cv wne wac wac wac wa re1tbw2 SetVar6 cv SetVar6 cv wne wac wac wa wac wi SetVar6 SetVar6 SetVar6 equidALT dtrucor a1i tbwsyl necon2bi 2thd axac chvar wac wn cT ctsk wcel cA cT wcel wa cA cpw cT wss wac wac cA cpw cT wss axac pm2.24i 3ad2ant3 mp3an23'
p5
sS'label'
p6
S'tskpwss'
p7
sb.