(iwrite_proof
Proof
p1
(dp2
S'passes'
p3
I170
sS'proof'
p4
S'cA cuni cB wss cB cA wcel wa cA cuni cB cA cuni cB wss cB cA wcel simpl cB cA wcel cB cA cuni wss cA cuni cB wss cB cA elssuni adantl eqssd'
p5
sS'label'
p6
S'unissel'
p7
sb.