(iwrite_proof
Proof
p1
(dp2
S'passes'
p3
I12
sS'proof'
p4
S'vy cv vy cv wcel wn vy cA csuc wral vx cv vx cv wcel wn vx cA wral vy cv vy cv wcel wn vy cA csuc vy elirrv rgenw a1i'
p5
sS'label'
p6
S'untsucf'
p7
sb.