(iwrite_proof
Proof
p1
(dp2
S'passes'
p3
I586
sS'proof'
p4
S'wph wch wth wps wph wth wph wch wps wph wth re1tbw2 wch wph wps wph wps wch wph wps vd13.1 in1 adantl ex syl9 dfvd3ir'
p5
sS'label'
p6
S'vd13'
p7
sb.