(iwrite_proof
Proof
p1
(dp2
S'passes'
p3
I196
sS'proof'
p4
S'cA cB cen wbr cC cD cen wbr wa cA cC cxp cB cD cxp cen wbr wi cA cW wcel cB cX wcel wa cC cY wcel cD cZ wcel wa wa cA cB cC cD xpen a1i'
p5
sS'label'
p6
S'xpengOLD'
p7
sb.