(iwrite_proof
Proof
p1
(dp2
S'passes'
p3
I248
sS'proof'
p4
S'SetVar0 SetVar10 SetVar3 cxr clt SetVar0 cv SetVar10 cv xrlttri SetVar0 cv SetVar10 cv SetVar3 cv xrlttr isso2i'
p5
sS'label'
p6
S'xrltso'
p7
sb.